target datalayout = "e-m:e-p270:32:32-p271:32:32-p272:64:64-i64:64-i128:128-f80:128-n8:16:32:64-S128"
target triple = "x86_64-pc-linux-gnu"

%struct.COMPLEX = type { double, double }
%struct.PJconsts = type { ptr, ptr, ptr, ptr, ptr, ptr, ptr, ptr, ptr, ptr, ptr, ptr, i32, ptr, ptr, ptr, ptr, ptr, ptr, ptr, ptr, double, double, double, double, double, double, double, double, double, double, double, double, double, double, double, double, double, double, double, double, double, double, i32, i32, i32, i32, i32, i32, i32, i32, i32, i32, i32, ptr, ptr, ptr, ptr, ptr, ptr, double, double, double, double, double, double, double, double, double, double, double, i32, [7 x double], i32, ptr, ptr, double, double, i32, [4 x i8], %"class.std::shared_ptr", i8, double, i8, %"class.std::__cxx11::basic_string", %"class.std::__cxx11::basic_string", %"class.std::__cxx11::basic_string", i8, %"class.std::vector", i32, %"class.std::vector.3", i32, i8, i8, i8, ptr }
%"class.std::shared_ptr" = type { %"class.std::__shared_ptr" }
%"class.std::__shared_ptr" = type { ptr, %"class.std::__shared_count" }
%"class.std::__shared_count" = type { ptr }
%"class.std::__cxx11::basic_string" = type { %"struct.std::__cxx11::basic_string<char>::_Alloc_hider", i64, %union.anon }
%"struct.std::__cxx11::basic_string<char>::_Alloc_hider" = type { ptr }
%union.anon = type { i64, [8 x i8] }
%"class.std::vector" = type { %"struct.std::_Vector_base" }
%"struct.std::_Vector_base" = type { %"struct.std::_Vector_base<osgeo::proj::operation::GridDescription, std::allocator<osgeo::proj::operation::GridDescription>>::_Vector_impl" }
%"struct.std::_Vector_base<osgeo::proj::operation::GridDescription, std::allocator<osgeo::proj::operation::GridDescription>>::_Vector_impl" = type { %"struct.std::_Vector_base<osgeo::proj::operation::GridDescription, std::allocator<osgeo::proj::operation::GridDescription>>::_Vector_impl_data" }
%"struct.std::_Vector_base<osgeo::proj::operation::GridDescription, std::allocator<osgeo::proj::operation::GridDescription>>::_Vector_impl_data" = type { ptr, ptr, ptr }
%"class.std::vector.3" = type { %"struct.std::_Vector_base.4" }
%"struct.std::_Vector_base.4" = type { %"struct.std::_Vector_base<PJCoordOperation, std::allocator<PJCoordOperation>>::_Vector_impl" }
%"struct.std::_Vector_base<PJCoordOperation, std::allocator<PJCoordOperation>>::_Vector_impl" = type { %"struct.std::_Vector_base<PJCoordOperation, std::allocator<PJCoordOperation>>::_Vector_impl_data" }
%"struct.std::_Vector_base<PJCoordOperation, std::allocator<PJCoordOperation>>::_Vector_impl_data" = type { ptr, ptr, ptr }
%struct.PJ_LP = type { double, double }
%struct.PJ_XY = type { double, double }

; Function Attrs: mustprogress uwtable
define internal { double, double } @_ZL14nzmg_e_inverse5PJ_XYP8PJconsts(double %0, double %1, ptr noundef %2) #0 {
  %4 = alloca %struct.PJ_LP, align 8
  %5 = alloca %struct.PJ_XY, align 8
  %6 = alloca ptr, align 8
  %7 = alloca i32, align 4
  %8 = alloca i32, align 4
  %9 = alloca %struct.COMPLEX, align 8
  %10 = alloca %struct.COMPLEX, align 8
  %11 = alloca %struct.COMPLEX, align 8
  %12 = alloca %struct.COMPLEX, align 8
  %13 = alloca double, align 8
  %14 = alloca ptr, align 8
  %15 = alloca %struct.COMPLEX, align 8
  %16 = alloca %struct.COMPLEX, align 8
  %17 = getelementptr inbounds nuw { double, double }, ptr %5, i32 0, i32 0
  store double %0, ptr %17, align 8
  %18 = getelementptr inbounds nuw { double, double }, ptr %5, i32 0, i32 1
  store double %1, ptr %18, align 8
  store ptr %2, ptr %6, align 8, !tbaa !3
  call void @llvm.memset.p0.i64(ptr align 8 %4, i8 0, i64 16, i1 false)
  call void @llvm.lifetime.start.p0(i64 4, ptr %7) #7
  call void @llvm.lifetime.start.p0(i64 4, ptr %8) #7
  call void @llvm.lifetime.start.p0(i64 16, ptr %9) #7
  call void @llvm.lifetime.start.p0(i64 16, ptr %10) #7
  call void @llvm.lifetime.start.p0(i64 16, ptr %11) #7
  call void @llvm.lifetime.start.p0(i64 16, ptr %12) #7
  call void @llvm.lifetime.start.p0(i64 8, ptr %13) #7
  call void @llvm.lifetime.start.p0(i64 8, ptr %14) #7
  %19 = getelementptr inbounds nuw %struct.PJ_XY, ptr %5, i32 0, i32 1
  %20 = load double, ptr %19, align 8, !tbaa !49
  %21 = getelementptr inbounds nuw %struct.COMPLEX, ptr %9, i32 0, i32 0
  store double %20, ptr %21, align 8, !tbaa !51
  %22 = getelementptr inbounds nuw %struct.PJ_XY, ptr %5, i32 0, i32 0
  %23 = load double, ptr %22, align 8, !tbaa !53
  %24 = getelementptr inbounds nuw %struct.COMPLEX, ptr %9, i32 0, i32 1
  store double %23, ptr %24, align 8, !tbaa !54
  store i32 20, ptr %7, align 4, !tbaa !55
  br label %25

25:                                               ; preds = %107, %3
  %26 = load i32, ptr %7, align 4, !tbaa !55
  %27 = icmp ne i32 %26, 0
  br i1 %27, label %28, label %110

28:                                               ; preds = %25
  call void @llvm.lifetime.start.p0(i64 16, ptr %15) #7
  call void @llvm.memcpy.p0.p0.i64(ptr align 8 %16, ptr align 8 %9, i64 16, i1 false), !tbaa.struct !56
  %29 = getelementptr inbounds nuw { double, double }, ptr %16, i32 0, i32 0
  %30 = load double, ptr %29, align 8
  %31 = getelementptr inbounds nuw { double, double }, ptr %16, i32 0, i32 1
  %32 = load double, ptr %31, align 8
  %33 = call { double, double } @_Z10pj_zpolyd17COMPLEXPKS_iPS_(double %30, double %32, ptr noundef @_ZL2bf, i32 noundef 5, ptr noundef %11)
  %34 = getelementptr inbounds nuw { double, double }, ptr %15, i32 0, i32 0
  %35 = extractvalue { double, double } %33, 0
  store double %35, ptr %34, align 8
  %36 = getelementptr inbounds nuw { double, double }, ptr %15, i32 0, i32 1
  %37 = extractvalue { double, double } %33, 1
  store double %37, ptr %36, align 8
  call void @llvm.memcpy.p0.p0.i64(ptr align 8 %10, ptr align 8 %15, i64 16, i1 false), !tbaa.struct !56
  call void @llvm.lifetime.end.p0(i64 16, ptr %15) #7
  %38 = getelementptr inbounds nuw %struct.PJ_XY, ptr %5, i32 0, i32 1
  %39 = load double, ptr %38, align 8, !tbaa !49
  %40 = getelementptr inbounds nuw %struct.COMPLEX, ptr %10, i32 0, i32 0
  %41 = load double, ptr %40, align 8, !tbaa !51
  %42 = fsub double %41, %39
  store double %42, ptr %40, align 8, !tbaa !51
  %43 = getelementptr inbounds nuw %struct.PJ_XY, ptr %5, i32 0, i32 0
  %44 = load double, ptr %43, align 8, !tbaa !53
  %45 = getelementptr inbounds nuw %struct.COMPLEX, ptr %10, i32 0, i32 1
  %46 = load double, ptr %45, align 8, !tbaa !54
  %47 = fsub double %46, %44
  store double %47, ptr %45, align 8, !tbaa !54
  %48 = getelementptr inbounds nuw %struct.COMPLEX, ptr %11, i32 0, i32 0
  %49 = load double, ptr %48, align 8, !tbaa !51
  %50 = getelementptr inbounds nuw %struct.COMPLEX, ptr %11, i32 0, i32 0
  %51 = load double, ptr %50, align 8, !tbaa !51
  %52 = getelementptr inbounds nuw %struct.COMPLEX, ptr %11, i32 0, i32 1
  %53 = load double, ptr %52, align 8, !tbaa !54
  %54 = getelementptr inbounds nuw %struct.COMPLEX, ptr %11, i32 0, i32 1
  %55 = load double, ptr %54, align 8, !tbaa !54
  %56 = fmul double %53, %55
  %57 = call double @llvm.fmuladd.f64(double %49, double %51, double %56)
  store double %57, ptr %13, align 8, !tbaa !57
  %58 = getelementptr inbounds nuw %struct.COMPLEX, ptr %10, i32 0, i32 0
  %59 = load double, ptr %58, align 8, !tbaa !51
  %60 = getelementptr inbounds nuw %struct.COMPLEX, ptr %11, i32 0, i32 0
  %61 = load double, ptr %60, align 8, !tbaa !51
  %62 = getelementptr inbounds nuw %struct.COMPLEX, ptr %10, i32 0, i32 1
  %63 = load double, ptr %62, align 8, !tbaa !54
  %64 = getelementptr inbounds nuw %struct.COMPLEX, ptr %11, i32 0, i32 1
  %65 = load double, ptr %64, align 8, !tbaa !54
  %66 = fmul double %63, %65
  %67 = call double @llvm.fmuladd.f64(double %59, double %61, double %66)
  %68 = fneg double %67
  %69 = load double, ptr %13, align 8, !tbaa !57
  %70 = fdiv double %68, %69
  %71 = getelementptr inbounds nuw %struct.COMPLEX, ptr %12, i32 0, i32 0
  store double %70, ptr %71, align 8, !tbaa !51
  %72 = getelementptr inbounds nuw %struct.COMPLEX, ptr %10, i32 0, i32 1
  %73 = load double, ptr %72, align 8, !tbaa !54
  %74 = getelementptr inbounds nuw %struct.COMPLEX, ptr %11, i32 0, i32 0
  %75 = load double, ptr %74, align 8, !tbaa !51
  %76 = getelementptr inbounds nuw %struct.COMPLEX, ptr %10, i32 0, i32 0
  %77 = load double, ptr %76, align 8, !tbaa !51
  %78 = getelementptr inbounds nuw %struct.COMPLEX, ptr %11, i32 0, i32 1
  %79 = load double, ptr %78, align 8, !tbaa !54
  %80 = fmul double %77, %79
  %81 = fneg double %80
  %82 = call double @llvm.fmuladd.f64(double %73, double %75, double %81)
  %83 = fneg double %82
  %84 = load double, ptr %13, align 8, !tbaa !57
  %85 = fdiv double %83, %84
  %86 = getelementptr inbounds nuw %struct.COMPLEX, ptr %12, i32 0, i32 1
  store double %85, ptr %86, align 8, !tbaa !54
  %87 = getelementptr inbounds nuw %struct.COMPLEX, ptr %12, i32 0, i32 0
  %88 = load double, ptr %87, align 8, !tbaa !51
  %89 = getelementptr inbounds nuw %struct.COMPLEX, ptr %9, i32 0, i32 0
  %90 = load double, ptr %89, align 8, !tbaa !51
  %91 = fadd double %90, %88
  store double %91, ptr %89, align 8, !tbaa !51
  %92 = getelementptr inbounds nuw %struct.COMPLEX, ptr %12, i32 0, i32 1
  %93 = load double, ptr %92, align 8, !tbaa !54
  %94 = getelementptr inbounds nuw %struct.COMPLEX, ptr %9, i32 0, i32 1
  %95 = load double, ptr %94, align 8, !tbaa !54
  %96 = fadd double %95, %93
  store double %96, ptr %94, align 8, !tbaa !54
  %97 = getelementptr inbounds nuw %struct.COMPLEX, ptr %12, i32 0, i32 0
  %98 = load double, ptr %97, align 8, !tbaa !51
  %99 = call double @llvm.fabs.f64(double %98)
  %100 = getelementptr inbounds nuw %struct.COMPLEX, ptr %12, i32 0, i32 1
  %101 = load double, ptr %100, align 8, !tbaa !54
  %102 = call double @llvm.fabs.f64(double %101)
  %103 = fadd double %99, %102
  %104 = fcmp ole double %103, 1.000000e-10
  br i1 %104, label %105, label %106

105:                                              ; preds = %28
  br label %110

106:                                              ; preds = %28
  br label %107

107:                                              ; preds = %106
  %108 = load i32, ptr %7, align 4, !tbaa !55
  %109 = add nsw i32 %108, -1
  store i32 %109, ptr %7, align 4, !tbaa !55
  br label %25, !llvm.loop !58

110:                                              ; preds = %105, %25
  %111 = load i32, ptr %7, align 4, !tbaa !55
  %112 = icmp ne i32 %111, 0
  br i1 %112, label %113, label %151

113:                                              ; preds = %110
  %114 = getelementptr inbounds nuw %struct.COMPLEX, ptr %9, i32 0, i32 1
  %115 = load double, ptr %114, align 8, !tbaa !54
  %116 = getelementptr inbounds nuw %struct.PJ_LP, ptr %4, i32 0, i32 0
  store double %115, ptr %116, align 8, !tbaa !60
  store i32 8, ptr %8, align 4, !tbaa !55
  %117 = load i32, ptr %8, align 4, !tbaa !55
  %118 = sext i32 %117 to i64
  %119 = getelementptr inbounds double, ptr @_ZZL14nzmg_e_inverse5PJ_XYP8PJconstsE4tphi, i64 %118
  store ptr %119, ptr %14, align 8, !tbaa !62
  %120 = load ptr, ptr %14, align 8, !tbaa !62
  %121 = load double, ptr %120, align 8, !tbaa !57
  %122 = getelementptr inbounds nuw %struct.PJ_LP, ptr %4, i32 0, i32 1
  store double %121, ptr %122, align 8, !tbaa !64
  br label %123

123:                                              ; preds = %137, %113
  %124 = load i32, ptr %8, align 4, !tbaa !55
  %125 = icmp ne i32 %124, 0
  br i1 %125, label %126, label %140

126:                                              ; preds = %123
  %127 = load ptr, ptr %14, align 8, !tbaa !62
  %128 = getelementptr inbounds double, ptr %127, i32 -1
  store ptr %128, ptr %14, align 8, !tbaa !62
  %129 = load ptr, ptr %14, align 8, !tbaa !62
  %130 = load double, ptr %129, align 8, !tbaa !57
  %131 = getelementptr inbounds nuw %struct.COMPLEX, ptr %9, i32 0, i32 0
  %132 = load double, ptr %131, align 8, !tbaa !51
  %133 = getelementptr inbounds nuw %struct.PJ_LP, ptr %4, i32 0, i32 1
  %134 = load double, ptr %133, align 8, !tbaa !64
  %135 = call double @llvm.fmuladd.f64(double %132, double %134, double %130)
  %136 = getelementptr inbounds nuw %struct.PJ_LP, ptr %4, i32 0, i32 1
  store double %135, ptr %136, align 8, !tbaa !64
  br label %137

137:                                              ; preds = %126
  %138 = load i32, ptr %8, align 4, !tbaa !55
  %139 = add nsw i32 %138, -1
  store i32 %139, ptr %8, align 4, !tbaa !55
  br label %123, !llvm.loop !65

140:                                              ; preds = %123
  %141 = load ptr, ptr %6, align 8, !tbaa !3
  %142 = getelementptr inbounds nuw %struct.PJconsts, ptr %141, i32 0, i32 61
  %143 = load double, ptr %142, align 8, !tbaa !44
  %144 = getelementptr inbounds nuw %struct.COMPLEX, ptr %9, i32 0, i32 0
  %145 = load double, ptr %144, align 8, !tbaa !51
  %146 = getelementptr inbounds nuw %struct.PJ_LP, ptr %4, i32 0, i32 1
  %147 = load double, ptr %146, align 8, !tbaa !64
  %148 = fmul double %145, %147
  %149 = call double @llvm.fmuladd.f64(double %148, double 0x3FDF072FF6413483, double %143)
  %150 = getelementptr inbounds nuw %struct.PJ_LP, ptr %4, i32 0, i32 1
  store double %149, ptr %150, align 8, !tbaa !64
  br label %154

151:                                              ; preds = %110
  %152 = getelementptr inbounds nuw %struct.PJ_LP, ptr %4, i32 0, i32 1
  store double 0x7FF0000000000000, ptr %152, align 8, !tbaa !64
  %153 = getelementptr inbounds nuw %struct.PJ_LP, ptr %4, i32 0, i32 0
  store double 0x7FF0000000000000, ptr %153, align 8, !tbaa !60
  br label %154

154:                                              ; preds = %151, %140
  call void @llvm.lifetime.end.p0(i64 8, ptr %14) #7
  call void @llvm.lifetime.end.p0(i64 8, ptr %13) #7
  call void @llvm.lifetime.end.p0(i64 16, ptr %12) #7
  call void @llvm.lifetime.end.p0(i64 16, ptr %11) #7
  call void @llvm.lifetime.end.p0(i64 16, ptr %10) #7
  call void @llvm.lifetime.end.p0(i64 16, ptr %9) #7
  call void @llvm.lifetime.end.p0(i64 4, ptr %8) #7
  call void @llvm.lifetime.end.p0(i64 4, ptr %7) #7
  %155 = load { double, double }, ptr %4, align 8
  ret { double, double } %155
}