; Function Attrs: mustprogress uwtable
define internal { double, double } @_ZL14nzmg_e_inverse5PJ_XYP8PJconsts(double %0, double %1, ptr noundef readonly captures(none) %2) #0 {
  %4 = alloca %struct.COMPLEX, align 8
  call void @llvm.lifetime.start.p0(i64 16, ptr nonnull %4) #5
  %5 = getelementptr inbounds nuw i8, ptr %4, i64 8
  br label %8

6:                                                ; preds = %8
  %7 = add nsw i32 %.038, -1
  %.not = icmp eq i32 %7, 0
  br i1 %.not, label %.thread, label %8, !llvm.loop !48

8:                                                ; preds = %3, %6
  %.038 = phi i32 [ 20, %3 ], [ %7, %6 ]
  %.sroa.8.037 = phi double [ %0, %3 ], [ %28, %6 ]
  %.sroa.014.036 = phi double [ %1, %3 ], [ %27, %6 ]
  %9 = call { double, double } @_Z10pj_zpolyd17COMPLEXPKS_iPS_(double %.sroa.014.036, double %.sroa.8.037, ptr noundef nonnull @_ZL2bf, i32 noundef 5, ptr noundef nonnull %4)
  %10 = extractvalue { double, double } %9, 0
  %11 = extractvalue { double, double } %9, 1
  %12 = fsub double %10, %1
  %13 = fsub double %11, %0
  %14 = load double, ptr %4, align 8, !tbaa !50
  %15 = load double, ptr %5, align 8, !tbaa !52
  %16 = fmul double %15, %15
  %17 = call double @llvm.fmuladd.f64(double %14, double %14, double %16)
  %18 = fmul double %13, %15
  %19 = call double @llvm.fmuladd.f64(double %12, double %14, double %18)
  %20 = fneg double %19
  %21 = fdiv double %20, %17
  %22 = fneg double %15
  %23 = fmul double %12, %22
  %24 = call double @llvm.fmuladd.f64(double %13, double %14, double %23)
  %25 = fneg double %24
  %26 = fdiv double %25, %17
  %27 = fadd double %.sroa.014.036, %21
  %28 = fadd double %.sroa.8.037, %26
  %29 = call double @llvm.fabs.f64(double %21)
  %30 = call double @llvm.fabs.f64(double %26)
  %31 = fadd double %29, %30
  %32 = fcmp ugt double %31, 1.000000e-10
  br i1 %32, label %6, label %.preheader

.preheader:                                       ; preds = %8, %.preheader
  %.sroa.428.041 = phi double [ %35, %.preheader ], [ -1.300000e-03, %8 ]
  %.03040 = phi i32 [ %36, %.preheader ], [ 8, %8 ]
  %.03139 = phi ptr [ %33, %.preheader ], [ getelementptr inbounds nuw (i8, ptr @_ZZL14nzmg_e_inverse5PJ_XYP8PJconstsE4tphi, i64 64), %8 ]
  %33 = getelementptr inbounds i8, ptr %.03139, i64 -8
  %34 = load double, ptr %33, align 8, !tbaa !53
  %35 = call double @llvm.fmuladd.f64(double %27, double %.sroa.428.041, double %34)
  %36 = add nsw i32 %.03040, -1
  %.not32 = icmp eq i32 %36, 0
  br i1 %.not32, label %37, label %.preheader, !llvm.loop !54

37:                                               ; preds = %.preheader
  %38 = getelementptr inbounds nuw i8, ptr %2, i64 448
  %39 = load double, ptr %38, align 8, !tbaa !38
  %40 = fmul double %27, %35
  %41 = call double @llvm.fmuladd.f64(double %40, double 0x3FDF072FF6413483, double %39)
  br label %.thread

.thread:                                          ; preds = %6, %37
  %.sroa.428.1 = phi double [ %41, %37 ], [ 0x7FF0000000000000, %6 ]
  %.sroa.027.0 = phi double [ %28, %37 ], [ 0x7FF0000000000000, %6 ]
  call void @llvm.lifetime.end.p0(i64 16, ptr nonnull %4) #5
  %.fca.0.insert = insertvalue { double, double } poison, double %.sroa.027.0, 0
  %.fca.1.insert = insertvalue { double, double } %.fca.0.insert, double %.sroa.428.1, 1
  ret { double, double } %.fca.1.insert
}